target datalayout = "e-m:e-p270:32:32-p271:32:32-p272:64:64-i64:64-i128:128-f80:128-n8:16:32:64-S128"
target triple = "x86_64-pc-linux-gnu"

%struct._zend_array = type { %struct._zend_refcounted_h, %union.anon.17, i32, %union.anon.19, i32, i32, i32, i32, i64, ptr }
%struct._zend_refcounted_h = type { i32, %union.anon.16 }
%union.anon.16 = type { i32 }
%union.anon.17 = type { i32 }
%union.anon.19 = type { ptr }
%struct._zval_struct = type { %union._zend_value, %union.anon.21, %union.anon.24 }
%union._zend_value = type { i64 }
%union.anon.21 = type { i32 }
%union.anon.24 = type { i32 }
%struct._ir_ctx = type { ptr, i32, i32, i32, i32, i32, i32, i32, i32, i32, i32, %struct._ir_insn, ptr, ptr, ptr, i32, i32, i32, ptr, ptr, ptr, ptr, ptr, i32, i32, i64, i32, i32, i32, i64, i32, i32, i32, i32, ptr, ptr, ptr, ptr, ptr, ptr, %union.anon.13, ptr, i32, i32, i32, i64, i32, i32, i32, ptr, ptr, ptr, ptr, %struct._ir_strtab, [61 x i32], [14 x i32] }
%struct._ir_insn = type { %struct.anon, %union.anon.5 }
%struct.anon = type { %union.anon, %union.anon.4 }
%union.anon = type { i32 }
%union.anon.4 = type { i32 }
%union.anon.5 = type { %union._ir_val }
%union._ir_val = type { double }
%union.anon.13 = type { ptr }
%struct._ir_strtab = type { ptr, i32, i32, i32, i32, ptr, i32, i32 }
%struct._zend_jit_ctx = type { %struct._ir_ctx, ptr, i8, i8, i8, i32, i32, i32, i32, i32, ptr, ptr, ptr, ptr, ptr, ptr, ptr, ptr, ptr, i32, ptr, i32, %struct._zend_array, [32 x i32] }
%struct.anon.0 = type { %union.anon.1, %union.anon.3 }
%union.anon.1 = type { i16 }
%union.anon.3 = type { i16 }

@zend_jit_vm_kind = internal global i32 0, align 4

; Function Attrs: nounwind uwtable
define internal i32 @jit_CONST_FUNC_PROTO(ptr noundef %0, i64 noundef %1, i32 noundef %2) #0 {
  %4 = alloca ptr, align 8
  %5 = alloca ptr, align 8
  %6 = alloca i64, align 8
  %7 = alloca i32, align 4
  %8 = alloca i32, align 4
  %9 = alloca ptr, align 8
  %10 = alloca ptr, align 8
  %11 = alloca ptr, align 8
  store ptr %0, ptr %5, align 8
  store i64 %1, ptr %6, align 8
  store i32 %2, ptr %7, align 4
  %12 = load i64, ptr %6, align 8
  %13 = icmp ne i64 %12, 0
  call void @llvm.assume(i1 %13)
  %14 = load ptr, ptr %5, align 8
  %15 = getelementptr inbounds %struct._zend_jit_ctx, ptr %14, i32 0, i32 22
  %16 = load i64, ptr %6, align 8
  %17 = call ptr @zend_hash_index_lookup(ptr noundef %15, i64 noundef %16)
  store ptr %17, ptr %10, align 8
  %18 = load ptr, ptr %10, align 8
  store ptr %18, ptr %4, align 8
  %19 = load ptr, ptr %4, align 8
  %20 = getelementptr inbounds %struct._zval_struct, ptr %19, i32 0, i32 1
  %21 = load i8, ptr %20, align 8
  %22 = zext i8 %21 to i32
  %23 = icmp eq i32 %22, 4
  br i1 %23, label %24, label %59

24:                                               ; preds = %3
  %25 = load ptr, ptr %10, align 8
  %26 = getelementptr inbounds %struct._zval_struct, ptr %25, i32 0, i32 0
  %27 = load i64, ptr %26, align 8
  %28 = trunc i64 %27 to i32
  store i32 %28, ptr %8, align 4
  %29 = load ptr, ptr %5, align 8
  %30 = getelementptr inbounds %struct._zend_jit_ctx, ptr %29, i32 0, i32 0
  %31 = getelementptr inbounds %struct._ir_ctx, ptr %30, i32 0, i32 0
  %32 = load ptr, ptr %31, align 8
  %33 = load i32, ptr %8, align 4
  %34 = sext i32 %33 to i64
  %35 = getelementptr inbounds %struct._ir_insn, ptr %32, i64 %34
  %36 = getelementptr inbounds %struct._ir_insn, ptr %35, i32 0, i32 0
  %37 = getelementptr inbounds %struct.anon, ptr %36, i32 0, i32 0
  %38 = getelementptr inbounds %struct.anon.0, ptr %37, i32 0, i32 0
  %39 = load i16, ptr %38, align 8
  %40 = zext i16 %39 to i32
  %41 = icmp eq i32 %40, 1601
  br i1 %41, label %42, label %57

42:                                               ; preds = %24
  %43 = load ptr, ptr %5, align 8
  %44 = getelementptr inbounds %struct._zend_jit_ctx, ptr %43, i32 0, i32 0
  %45 = getelementptr inbounds %struct._ir_ctx, ptr %44, i32 0, i32 0
  %46 = load ptr, ptr %45, align 8
  %47 = load i32, ptr %8, align 4
  %48 = sext i32 %47 to i64
  %49 = getelementptr inbounds %struct._ir_insn, ptr %46, i64 %48
  %50 = getelementptr inbounds %struct._ir_insn, ptr %49, i32 0, i32 0
  %51 = getelementptr inbounds %struct.anon, ptr %50, i32 0, i32 0
  %52 = getelementptr inbounds %struct.anon.0, ptr %51, i32 0, i32 1
  %53 = load i16, ptr %52, align 2
  %54 = zext i16 %53 to i32
  %55 = load i32, ptr %7, align 4
  %56 = icmp eq i32 %54, %55
  br label %57

57:                                               ; preds = %42, %24
  %58 = phi i1 [ false, %24 ], [ %56, %42 ]
  call void @llvm.assume(i1 %58)
  br label %89

59:                                               ; preds = %3
  %60 = load ptr, ptr %5, align 8
  %61 = getelementptr inbounds %struct._zend_jit_ctx, ptr %60, i32 0, i32 0
  %62 = load i64, ptr %6, align 8
  %63 = call i32 @ir_unique_const_addr(ptr noundef %61, i64 noundef %62)
  store i32 %63, ptr %8, align 4
  %64 = load ptr, ptr %5, align 8
  %65 = getelementptr inbounds %struct._zend_jit_ctx, ptr %64, i32 0, i32 0
  %66 = getelementptr inbounds %struct._ir_ctx, ptr %65, i32 0, i32 0
  %67 = load ptr, ptr %66, align 8
  %68 = load i32, ptr %8, align 4
  %69 = sext i32 %68 to i64
  %70 = getelementptr inbounds %struct._ir_insn, ptr %67, i64 %69
  store ptr %70, ptr %9, align 8
  %71 = load ptr, ptr %9, align 8
  %72 = getelementptr inbounds %struct._ir_insn, ptr %71, i32 0, i32 0
  %73 = getelementptr inbounds %struct.anon, ptr %72, i32 0, i32 0
  store i32 1601, ptr %73, align 8
  %74 = load i32, ptr %7, align 4
  %75 = trunc i32 %74 to i16
  %76 = load ptr, ptr %9, align 8
  %77 = getelementptr inbounds %struct._ir_insn, ptr %76, i32 0, i32 0
  %78 = getelementptr inbounds %struct.anon, ptr %77, i32 0, i32 0
  %79 = getelementptr inbounds %struct.anon.0, ptr %78, i32 0, i32 1
  store i16 %75, ptr %79, align 2
  br label %80

80:                                               ; preds = %59
  %81 = load ptr, ptr %10, align 8
  store ptr %81, ptr %11, align 8
  %82 = load i32, ptr %8, align 4
  %83 = sext i32 %82 to i64
  %84 = load ptr, ptr %11, align 8
  %85 = getelementptr inbounds %struct._zval_struct, ptr %84, i32 0, i32 0
  store i64 %83, ptr %85, align 8
  %86 = load ptr, ptr %11, align 8
  %87 = getelementptr inbounds %struct._zval_struct, ptr %86, i32 0, i32 1
  store i32 4, ptr %87, align 8
  br label %88

88:                                               ; preds = %80
  br label %89

89:                                               ; preds = %88, %57
  %90 = load i32, ptr %8, align 4
  ret i32 %90
}

; Function Attrs: nounwind uwtable
define internal i32 @jit_IP(ptr noundef %0) #0 {
  %2 = alloca ptr, align 8
  store ptr %0, ptr %2, align 8
  %3 = load ptr, ptr %2, align 8
  %4 = getelementptr inbounds %struct._zend_jit_ctx, ptr %3, i32 0, i32 0
  %5 = call i32 @_ir_RLOAD(ptr noundef %4, i32 noundef 6, i32 noundef 15)
  ret i32 %5
}

; Function Attrs: nounwind uwtable
define internal i32 @jit_CONST_FUNC(ptr noundef %0, i64 noundef %1, i16 noundef zeroext %2) #0 {
  %4 = alloca ptr, align 8
  %5 = alloca i64, align 8
  %6 = alloca i16, align 2
  %7 = alloca i32, align 4
  store ptr %0, ptr %4, align 8
  store i64 %1, ptr %5, align 8
  store i16 %2, ptr %6, align 2
  store i32 0, ptr %7, align 4
  %8 = load ptr, ptr %4, align 8
  %9 = load i64, ptr %5, align 8
  %10 = load i32, ptr %7, align 4
  %11 = call i32 @jit_CONST_FUNC_PROTO(ptr noundef %8, i64 noundef %9, i32 noundef %10)
  ret i32 %11
}

; Function Attrs: nounwind uwtable
define internal i32 @zend_jit_hybrid_runtime_jit_stub(ptr noundef %0) #0 {
  %2 = alloca i32, align 4
  %3 = alloca ptr, align 8
  store ptr %0, ptr %3, align 8
  %4 = load i32, ptr @zend_jit_vm_kind, align 4
  %5 = icmp ne i32 %4, 4
  br i1 %5, label %6, label %7

6:                                                ; preds = %1
  store i32 0, ptr %2, align 4
  br label %20

7:                                                ; preds = %1
  %8 = load ptr, ptr %3, align 8
  %9 = getelementptr inbounds %struct._zend_jit_ctx, ptr %8, i32 0, i32 0
  %10 = load ptr, ptr %3, align 8
  %11 = call i32 @jit_CONST_FUNC(ptr noundef %10, i64 noundef ptrtoint (ptr @zend_runtime_jit to i64), i16 noundef zeroext 2)
  %12 = call i32 @_ir_CALL(ptr noundef %9, i32 noundef 0, i32 noundef %11)
  %13 = load ptr, ptr %3, align 8
  %14 = getelementptr inbounds %struct._zend_jit_ctx, ptr %13, i32 0, i32 0
  %15 = load ptr, ptr %3, align 8
  %16 = getelementptr inbounds %struct._zend_jit_ctx, ptr %15, i32 0, i32 0
  %17 = load ptr, ptr %3, align 8
  %18 = call i32 @jit_IP(ptr noundef %17)
  %19 = call i32 @_ir_LOAD(ptr noundef %16, i32 noundef 6, i32 noundef %18)
  call void @_ir_IJMP(ptr noundef %14, i32 noundef %19)
  store i32 1, ptr %2, align 4
  br label %20

20:                                               ; preds = %7, %6
  %21 = load i32, ptr %2, align 4
  ret i32 %21
}