; Function Attrs: nounwind uwtable
define internal noundef i32 @zend_jit_hybrid_runtime_jit_stub(ptr noundef %0) #0 {
  %2 = load i32, ptr @zend_jit_vm_kind, align 4
  %.not = icmp eq i32 %2, 4
  br i1 %.not, label %3, label %31

3:                                                ; preds = %1
  %4 = getelementptr inbounds i8, ptr %0, i64 808
  %5 = tail call ptr @zend_hash_index_lookup(ptr noundef nonnull %4, i64 noundef ptrtoint (ptr @zend_runtime_jit to i64)) #32
  %6 = getelementptr inbounds i8, ptr %5, i64 8
  %7 = load i8, ptr %6, align 8
  %8 = icmp eq i8 %7, 4
  br i1 %8, label %9, label %23

9:                                                ; preds = %3
  %10 = load i64, ptr %5, align 8
  %11 = trunc i64 %10 to i32
  %12 = load ptr, ptr %0, align 8
  %sext.i.i = shl i64 %10, 32
  %13 = ashr exact i64 %sext.i.i, 32
  %14 = getelementptr inbounds %struct._ir_insn, ptr %12, i64 %13
  %15 = load i16, ptr %14, align 8
  %16 = icmp eq i16 %15, 1601
  br i1 %16, label %17, label %21

17:                                               ; preds = %9
  %18 = getelementptr inbounds i8, ptr %14, i64 2
  %19 = load i16, ptr %18, align 2
  %20 = icmp eq i16 %19, 0
  br label %21

21:                                               ; preds = %17, %9
  %22 = phi i1 [ false, %9 ], [ %20, %17 ]
  tail call void @llvm.assume(i1 %22)
  br label %jit_CONST_FUNC.exit

23:                                               ; preds = %3
  %24 = tail call i32 @ir_unique_const_addr(ptr noundef %0, i64 noundef ptrtoint (ptr @zend_runtime_jit to i64)) #32
  %25 = load ptr, ptr %0, align 8
  %26 = sext i32 %24 to i64
  %27 = getelementptr inbounds %struct._ir_insn, ptr %25, i64 %26
  store i32 1601, ptr %27, align 8
  store i64 %26, ptr %5, align 8
  store i32 4, ptr %6, align 8
  br label %jit_CONST_FUNC.exit

jit_CONST_FUNC.exit:                              ; preds = %21, %23
  %.0.i.i = phi i32 [ %11, %21 ], [ %24, %23 ]
  %28 = tail call i32 @_ir_CALL(ptr noundef nonnull %0, i32 noundef 0, i32 noundef %.0.i.i) #32
  %29 = tail call i32 @_ir_RLOAD(ptr noundef nonnull %0, i32 noundef 6, i32 noundef 15) #32
  %30 = tail call i32 @_ir_LOAD(ptr noundef nonnull %0, i32 noundef 6, i32 noundef %29) #32
  tail call void @_ir_IJMP(ptr noundef nonnull %0, i32 noundef %30) #32
  br label %31

31:                                               ; preds = %1, %jit_CONST_FUNC.exit
  %.0 = phi i32 [ 1, %jit_CONST_FUNC.exit ], [ 0, %1 ]
  ret i32 %.0
}